; Function Attrs: nounwind uwtable
define internal noundef ptr @func_get_code(ptr noundef %0, ptr readnone captures(none) %1) #0 {
  %3 = tail call i32 (ptr, ptr, ...) @PySys_Audit(ptr noundef nonnull @.str.35, ptr noundef nonnull @.str.36, ptr noundef %0, ptr noundef nonnull @.str.26) #8
  %4 = icmp slt i32 %3, 0
  br i1 %4, label %_Py_NewRef.exit, label %5

5:                                                ; preds = %2
  %6 = getelementptr inbounds nuw i8, ptr %0, i64 48
  %7 = load ptr, ptr %6, align 8, !tbaa !109
  %8 = load i32, ptr %7, align 8, !tbaa !99
  %9 = icmp slt i32 %8, 0
  br i1 %9, label %_Py_NewRef.exit, label %10

10:                                               ; preds = %5
  %11 = add nuw i32 %8, 1
  store i32 %11, ptr %7, align 8, !tbaa !99
  br label %_Py_NewRef.exit

_Py_NewRef.exit:                                  ; preds = %10, %5, %2
  %.0 = phi ptr [ null, %2 ], [ %7, %5 ], [ %7, %10 ]
  ret ptr %.0
}